; Function Attrs: nounwind uwtable
define dso_local void @dsa_pin(ptr noundef readonly captures(none) %0) local_unnamed_addr #0 {
  %2 = load ptr, ptr %0, align 8
  %3 = getelementptr inbounds nuw i8, ptr %2, i64 6172
  %4 = tail call zeroext i1 @LWLockAcquire(ptr noundef nonnull %3, i32 noundef 0) #11
  %5 = load ptr, ptr %0, align 8
  %6 = getelementptr inbounds nuw i8, ptr %5, i64 6156
  %7 = load i8, ptr %6, align 4, !range !15, !noundef !16
  %8 = trunc nuw i8 %7 to i1
  br i1 %8, label %9, label %13

9:                                                ; preds = %1
  %10 = getelementptr inbounds nuw i8, ptr %5, i64 6172
  tail call void @LWLockRelease(ptr noundef nonnull %10) #11
  %11 = tail call zeroext i1 @errstart_cold(i32 noundef 21, ptr noundef null) #12
  tail call void @llvm.assume(i1 %11)
  %12 = tail call i32 (ptr, ...) @errmsg_internal(ptr noundef nonnull @.str.6) #11
  tail call void @errfinish(ptr noundef nonnull @.str.1, i32 noundef 981, ptr noundef nonnull @__func__.dsa_pin) #11
  unreachable

13:                                               ; preds = %1
  store i8 1, ptr %6, align 4
  %14 = load ptr, ptr %0, align 8
  %15 = getelementptr inbounds nuw i8, ptr %14, i64 6152
  %16 = load i32, ptr %15, align 8
  %17 = add i32 %16, 1
  store i32 %17, ptr %15, align 8
  %18 = load ptr, ptr %0, align 8
  %19 = getelementptr inbounds nuw i8, ptr %18, i64 6172
  tail call void @LWLockRelease(ptr noundef nonnull %19) #11
  ret void
}